target datalayout = "e-m:e-p270:32:32-p271:32:32-p272:64:64-i64:64-i128:128-f80:128-n8:16:32:64-S128"
target triple = "x86_64-pc-linux-gnu"

%struct.stbvox_mesh_maker = type { %struct.stbvox_input_description, i32, i32, i32, i32, i32, i32, i32, i32, i32, i32, i32, i32, i32, i32, [6 x [4 x i32]], [6 x [4 x i32]], i32, i32, i32, i32, [2 x [3 x ptr]], [2 x [3 x ptr]], [2 x [3 x ptr]], [2 x [3 x i32]], [2 x [3 x i32]], [2 x [3 x i32]], i32, [128 x [2 x float]] }
%struct.stbvox_input_description = type { i8, ptr, ptr, ptr, ptr, ptr, ptr, ptr, ptr, ptr, ptr, ptr, ptr, ptr, ptr, ptr, ptr, ptr, ptr, ptr, ptr, ptr, ptr, ptr, ptr, ptr, ptr, ptr, ptr, ptr, ptr, ptr, ptr, ptr, ptr, ptr, ptr, ptr, ptr, ptr, ptr, ptr, ptr }

; Function Attrs: nounwind uwtable
define void @stbvox_set_input_stride(ptr noundef %0, i32 noundef %1, i32 noundef %2) #0 {
  %4 = alloca ptr, align 8
  %5 = alloca i32, align 4
  %6 = alloca i32, align 4
  %7 = alloca i32, align 4
  %8 = alloca i32, align 4
  store ptr %0, ptr %4, align 8, !tbaa !20
  store i32 %1, ptr %5, align 4, !tbaa !3
  store i32 %2, ptr %6, align 4, !tbaa !3
  call void @llvm.lifetime.start.p0(i64 4, ptr %7) #4
  call void @llvm.lifetime.start.p0(i64 4, ptr %8) #4
  %9 = load i32, ptr %5, align 4, !tbaa !3
  %10 = load ptr, ptr %4, align 8, !tbaa !20
  %11 = getelementptr inbounds nuw %struct.stbvox_mesh_maker, ptr %10, i32 0, i32 10
  store i32 %9, ptr %11, align 4, !tbaa !75
  %12 = load i32, ptr %6, align 4, !tbaa !3
  %13 = load ptr, ptr %4, align 8, !tbaa !20
  %14 = getelementptr inbounds nuw %struct.stbvox_mesh_maker, ptr %13, i32 0, i32 11
  store i32 %12, ptr %14, align 8, !tbaa !74
  store i32 0, ptr %7, align 4, !tbaa !3
  br label %15

15:                                               ; preds = %120, %3
  %16 = load i32, ptr %7, align 4, !tbaa !3
  %17 = icmp slt i32 %16, 6
  br i1 %17, label %18, label %123

18:                                               ; preds = %15
  store i32 0, ptr %8, align 4, !tbaa !3
  br label %19

19:                                               ; preds = %116, %18
  %20 = load i32, ptr %8, align 4, !tbaa !3
  %21 = icmp slt i32 %20, 4
  br i1 %21, label %22, label %119

22:                                               ; preds = %19
  %23 = load i32, ptr %7, align 4, !tbaa !3
  %24 = sext i32 %23 to i64
  %25 = getelementptr inbounds [6 x [4 x [3 x i8]]], ptr @stbvox_vertex_vector, i64 0, i64 %24
  %26 = load i32, ptr %8, align 4, !tbaa !3
  %27 = sext i32 %26 to i64
  %28 = getelementptr inbounds [4 x [3 x i8]], ptr %25, i64 0, i64 %27
  %29 = getelementptr inbounds [3 x i8], ptr %28, i64 0, i64 0
  %30 = load i8, ptr %29, align 1, !tbaa !7
  %31 = zext i8 %30 to i32
  %32 = load ptr, ptr %4, align 8, !tbaa !20
  %33 = getelementptr inbounds nuw %struct.stbvox_mesh_maker, ptr %32, i32 0, i32 10
  %34 = load i32, ptr %33, align 4, !tbaa !75
  %35 = mul nsw i32 %31, %34
  %36 = load i32, ptr %7, align 4, !tbaa !3
  %37 = sext i32 %36 to i64
  %38 = getelementptr inbounds [6 x [4 x [3 x i8]]], ptr @stbvox_vertex_vector, i64 0, i64 %37
  %39 = load i32, ptr %8, align 4, !tbaa !3
  %40 = sext i32 %39 to i64
  %41 = getelementptr inbounds [4 x [3 x i8]], ptr %38, i64 0, i64 %40
  %42 = getelementptr inbounds [3 x i8], ptr %41, i64 0, i64 1
  %43 = load i8, ptr %42, align 1, !tbaa !7
  %44 = zext i8 %43 to i32
  %45 = load ptr, ptr %4, align 8, !tbaa !20
  %46 = getelementptr inbounds nuw %struct.stbvox_mesh_maker, ptr %45, i32 0, i32 11
  %47 = load i32, ptr %46, align 8, !tbaa !74
  %48 = mul nsw i32 %44, %47
  %49 = add nsw i32 %35, %48
  %50 = load i32, ptr %7, align 4, !tbaa !3
  %51 = sext i32 %50 to i64
  %52 = getelementptr inbounds [6 x [4 x [3 x i8]]], ptr @stbvox_vertex_vector, i64 0, i64 %51
  %53 = load i32, ptr %8, align 4, !tbaa !3
  %54 = sext i32 %53 to i64
  %55 = getelementptr inbounds [4 x [3 x i8]], ptr %52, i64 0, i64 %54
  %56 = getelementptr inbounds [3 x i8], ptr %55, i64 0, i64 2
  %57 = load i8, ptr %56, align 1, !tbaa !7
  %58 = zext i8 %57 to i32
  %59 = add nsw i32 %49, %58
  %60 = load ptr, ptr %4, align 8, !tbaa !20
  %61 = getelementptr inbounds nuw %struct.stbvox_mesh_maker, ptr %60, i32 0, i32 15
  %62 = load i32, ptr %7, align 4, !tbaa !3
  %63 = sext i32 %62 to i64
  %64 = getelementptr inbounds [6 x [4 x i32]], ptr %61, i64 0, i64 %63
  %65 = load i32, ptr %8, align 4, !tbaa !3
  %66 = sext i32 %65 to i64
  %67 = getelementptr inbounds [4 x i32], ptr %64, i64 0, i64 %66
  store i32 %59, ptr %67, align 4, !tbaa !3
  %68 = load i32, ptr %7, align 4, !tbaa !3
  %69 = sext i32 %68 to i64
  %70 = getelementptr inbounds [6 x [4 x [3 x i8]]], ptr @stbvox_vertex_vector, i64 0, i64 %69
  %71 = load i32, ptr %8, align 4, !tbaa !3
  %72 = sext i32 %71 to i64
  %73 = getelementptr inbounds [4 x [3 x i8]], ptr %70, i64 0, i64 %72
  %74 = getelementptr inbounds [3 x i8], ptr %73, i64 0, i64 0
  %75 = load i8, ptr %74, align 1, !tbaa !7
  %76 = zext i8 %75 to i32
  %77 = sub nsw i32 %76, 1
  %78 = load ptr, ptr %4, align 8, !tbaa !20
  %79 = getelementptr inbounds nuw %struct.stbvox_mesh_maker, ptr %78, i32 0, i32 10
  %80 = load i32, ptr %79, align 4, !tbaa !75
  %81 = mul nsw i32 %77, %80
  %82 = load i32, ptr %7, align 4, !tbaa !3
  %83 = sext i32 %82 to i64
  %84 = getelementptr inbounds [6 x [4 x [3 x i8]]], ptr @stbvox_vertex_vector, i64 0, i64 %83
  %85 = load i32, ptr %8, align 4, !tbaa !3
  %86 = sext i32 %85 to i64
  %87 = getelementptr inbounds [4 x [3 x i8]], ptr %84, i64 0, i64 %86
  %88 = getelementptr inbounds [3 x i8], ptr %87, i64 0, i64 1
  %89 = load i8, ptr %88, align 1, !tbaa !7
  %90 = zext i8 %89 to i32
  %91 = sub nsw i32 %90, 1
  %92 = load ptr, ptr %4, align 8, !tbaa !20
  %93 = getelementptr inbounds nuw %struct.stbvox_mesh_maker, ptr %92, i32 0, i32 11
  %94 = load i32, ptr %93, align 8, !tbaa !74
  %95 = mul nsw i32 %91, %94
  %96 = add nsw i32 %81, %95
  %97 = load i32, ptr %7, align 4, !tbaa !3
  %98 = sext i32 %97 to i64
  %99 = getelementptr inbounds [6 x [4 x [3 x i8]]], ptr @stbvox_vertex_vector, i64 0, i64 %98
  %100 = load i32, ptr %8, align 4, !tbaa !3
  %101 = sext i32 %100 to i64
  %102 = getelementptr inbounds [4 x [3 x i8]], ptr %99, i64 0, i64 %101
  %103 = getelementptr inbounds [3 x i8], ptr %102, i64 0, i64 2
  %104 = load i8, ptr %103, align 1, !tbaa !7
  %105 = zext i8 %104 to i32
  %106 = sub nsw i32 %105, 1
  %107 = add nsw i32 %96, %106
  %108 = load ptr, ptr %4, align 8, !tbaa !20
  %109 = getelementptr inbounds nuw %struct.stbvox_mesh_maker, ptr %108, i32 0, i32 16
  %110 = load i32, ptr %7, align 4, !tbaa !3
  %111 = sext i32 %110 to i64
  %112 = getelementptr inbounds [6 x [4 x i32]], ptr %109, i64 0, i64 %111
  %113 = load i32, ptr %8, align 4, !tbaa !3
  %114 = sext i32 %113 to i64
  %115 = getelementptr inbounds [4 x i32], ptr %112, i64 0, i64 %114
  store i32 %107, ptr %115, align 4, !tbaa !3
  br label %116

116:                                              ; preds = %22
  %117 = load i32, ptr %8, align 4, !tbaa !3
  %118 = add nsw i32 %117, 1
  store i32 %118, ptr %8, align 4, !tbaa !3
  br label %19, !llvm.loop !123

119:                                              ; preds = %19
  br label %120

120:                                              ; preds = %119
  %121 = load i32, ptr %7, align 4, !tbaa !3
  %122 = add nsw i32 %121, 1
  store i32 %122, ptr %7, align 4, !tbaa !3
  br label %15, !llvm.loop !124

123:                                              ; preds = %15
  call void @llvm.lifetime.end.p0(i64 4, ptr %8) #4
  call void @llvm.lifetime.end.p0(i64 4, ptr %7) #4
  ret void
}