; Function Attrs: nofree norecurse nosync nounwind memory(read, argmem: write, inaccessiblemem: none) uwtable
define void @stbvox_set_input_stride(ptr noundef writeonly captures(none) initializes((380, 388)) %0, i32 noundef %1, i32 noundef %2) local_unnamed_addr #15 {
  %4 = getelementptr inbounds nuw i8, ptr %0, i64 380
  store i32 %1, ptr %4, align 4, !tbaa !63
  %5 = getelementptr inbounds nuw i8, ptr %0, i64 384
  store i32 %2, ptr %5, align 8, !tbaa !62
  %6 = getelementptr inbounds nuw i8, ptr %0, i64 400
  %7 = getelementptr inbounds nuw i8, ptr %0, i64 496
  br label %.preheader

.preheader:                                       ; preds = %3, %37
  %indvars.iv33 = phi i64 [ 0, %3 ], [ %indvars.iv.next34, %37 ]
  br label %8

8:                                                ; preds = %.preheader, %8
  %indvars.iv = phi i64 [ 0, %.preheader ], [ %indvars.iv.next, %8 ]
  %9 = getelementptr inbounds nuw [6 x [4 x [3 x i8]]], ptr @stbvox_vertex_vector, i64 0, i64 %indvars.iv33, i64 %indvars.iv
  %10 = load i8, ptr %9, align 1, !tbaa !3
  %11 = zext i8 %10 to i32
  %12 = mul nsw i32 %1, %11
  %13 = getelementptr inbounds nuw i8, ptr %9, i64 1
  %14 = load i8, ptr %13, align 1, !tbaa !3
  %15 = zext i8 %14 to i32
  %16 = mul nsw i32 %2, %15
  %17 = add nsw i32 %16, %12
  %18 = getelementptr inbounds nuw i8, ptr %9, i64 2
  %19 = load i8, ptr %18, align 1, !tbaa !3
  %20 = zext i8 %19 to i32
  %21 = add nsw i32 %17, %20
  %22 = getelementptr inbounds nuw [6 x [4 x i32]], ptr %6, i64 0, i64 %indvars.iv33, i64 %indvars.iv
  store i32 %21, ptr %22, align 4, !tbaa !14
  %23 = load i8, ptr %9, align 1, !tbaa !3
  %24 = zext i8 %23 to i32
  %25 = add nsw i32 %24, -1
  %26 = mul nsw i32 %25, %1
  %27 = load i8, ptr %13, align 1, !tbaa !3
  %28 = zext i8 %27 to i32
  %29 = add nsw i32 %28, -1
  %30 = mul nsw i32 %29, %2
  %31 = load i8, ptr %18, align 1, !tbaa !3
  %32 = zext i8 %31 to i32
  %33 = add nsw i32 %32, -1
  %34 = add i32 %33, %26
  %35 = add i32 %34, %30
  %36 = getelementptr inbounds nuw [6 x [4 x i32]], ptr %7, i64 0, i64 %indvars.iv33, i64 %indvars.iv
  store i32 %35, ptr %36, align 4, !tbaa !14
  %indvars.iv.next = add nuw nsw i64 %indvars.iv, 1
  %exitcond.not = icmp eq i64 %indvars.iv.next, 4
  br i1 %exitcond.not, label %37, label %8, !llvm.loop !102

37:                                               ; preds = %8
  %indvars.iv.next34 = add nuw nsw i64 %indvars.iv33, 1
  %exitcond36.not = icmp eq i64 %indvars.iv.next34, 6
  br i1 %exitcond36.not, label %38, label %.preheader, !llvm.loop !103

38:                                               ; preds = %37
  ret void
}